(lp1
(lp2
I467
aI131
aI511
aI246
aI143
aI133
aI176
aI165
aI159
aI473
aI298
aI394
aI176
aI128
aa(lp3
I80
aI511
aI210
aI508
aI494
aI473
aI214
aI371
aI19
aI533
aI218
aI250
aI212
aI128
aa(lp4
I273
aI359
aI332
aI411
aI521
aI37
aI13
aI406
aI493
aI37
aI128
aa(lp5
I48
aI389
aI546
aI228
aI366
aI371
aI260
aI339
aI159
aI544
aI253
aI552
aI454
aI201
aI128
aa(lp6
I316
aI356
aI472
aI299
aI159
aI279
aI546
aI356
aI56
aI533
aI356
aI311
aI128
aa(lp7
I424
aI318
aI533
aI279
aI297
aI416
aI317
aI546
aI128
aa(lp8
I190
aI402
aI317
aI533
aI215
aI128
aa(lp9
I301
aI331
aI268
aI388
aI134
aI162
aI96
aI97
aI339
aI159
aI531
aI532
aI319
aI550
aI467
aI305
aI283
aI107
aa(lp10
I482
aI506
aI77
aI294
aI279
aI253
aI311
aI446
aI115
aI533
aI552
aI454
aI201
aI128
aa(lp11
I473
aI169
aI201
aI128
aa(lp12
I187
aI284
aI278
aI135
aI425
aI83
aI315
aI128
aa(lp13
I279
aI546
aI348
aI122
aI533
aI14
aI311
aI128
aa(lp14
I473
aI349
aI398
aI235
aI206
aI35
aI208
aI159
aI190
aI75
aI3
aI494
aI128
aa(lp15
I160
aI503
aI242
aI86
aI492
aI355
aI411
aI527
aI303
aI344
aI277
aI406
aI369
aI303
aI344
aI128
aa(lp16
I538
aI517
aI40
aI321
aI186
aI128
aa(lp17
I162
aI96
aI97
aI339
aI159
aI531
aI532
aI319
aI159
aI317
aI56
aI55
aI546
aI371
aI329
aI174
aI269
aI364
aI354
aI470
aI532
aI138
aI317
aI159
aI364
aI353
aI185
aI108
aI83
aI332
aI104
aI139
aI159
aI411
aI76
aI83
aI207
aI396
aI406
aI405
aI83
aI461
aI128
aa(lp18
I502
aI531
aI532
aI159
aI16
aI122
aI363
aI126
aI307
aI159
aI112
aI310
aI363
aI422
aI83
aI157
aI341
aI159
aI467
aI300
aI293
aI22
aI519
aI26
aI522
aI128
aa(lp19
I301
aI331
aI268
aI388
aI134
aI162
aI96
aI97
aI339
aI159
aI28
aI532
aI319
aI47
aI533
aI131
aI494
aI280
aI246
aI460
aI220
aI448
aI379
aI414
aa(lp20
I434
aI427
aI338
aI473
aI518
aI129
aI236
aI533
aI421
aI546
aI27
aI128
aa(lp21
I66
aI99
aI31
aI372
aI107
aI159
aI467
aI300
aI200
aI310
aI538
aI396
aI159
aI320
aI6
aI464
aI405
aI485
aI87
aI423
aI159
aI367
aI102
aI43
aI518
aI310
aI128
aa(lp22
I354
aI236
aI221
aI159
aI397
aI326
aI159
aI469
aI91
aI200
aI83
aI305
aI152
aI128
aa(lp23
I141
aI291
aI21
aI310
aI283
aI396
aI128
aa(lp24
I260
aI339
aI159
aI277
aI420
aI52
aI465
aI172
aI494
aI533
aI52
aI298
aI83
aI36
aI128
aa(lp25
I382
aI309
aI162
aI96
aI97
aI379
aI16
aI542
aI110
aI329
aI174
aI11
aI345
aI123
aI510
aI342
aI417
aI506
aI77
aI81
aI457
aI339
aI159
aa(lp26
I381
aI545
aI39
aI266
aI421
aI491
aI445
aI311
aI159
aI452
aI42
aI291
aI512
aI128
aa(lp27
I245
aI424
aI390
aI533
aI412
aI399
aI178
aI505
aI371
aI190
aI479
aI3
aI494
aI159
aI248
aI486
aI219
aI159
aI396
aI486
aI292
aI310
aI159
aI322
aI387
aI490
aI378
aI128
aa(lp28
I301
aI331
aI268
aI388
aI134
aI162
aI96
aI97
aI339
aI159
aI294
aI190
aI479
aI106
aI3
aI533
aI212
aI91
aI494
aI220
aI448
aI379
aI414
aa(lp29
I279
aI546
aI327
aI366
aI533
aI392
aI128
aa(lp30
I131
aI374
aI159
aI21
aI159
aI94
aI494
aI263
aI190
aI159
aI47
aI395
aI533
aI131
aI433
aI435
aI186
aI396
aI128
aa(lp31
I416
aI317
aI55
aI546
aI128
aa(lp32
I132
aI306
aI122
aI546
aI128
aa(lp33
I294
aI69
aI480
aI159
aI67
aI7
aI159
aI166
aI465
aI128
aa(lp34
I145
aI455
aI507
aI159
aI37
aI275
aI197
aI159
aI350
aI549
aI159
aI273
aI526
aI159
aI273
aI317
aI533
aI66
aI154
aI172
aI105
aI494
aI128
aa(lp35
I301
aI331
aI268
aI388
aI134
aI162
aI96
aI97
aI339
aI159
aI294
aI279
aI253
aI311
aI446
aI115
aI533
aI552
aI454
aI201
aI220
aI448
aI379
aI414
aa(lp36
I538
aI430
aI471
aI203
aI159
aI443
aI271
aI159
aI54
aI119
aI105
aI238
aI120
aI56
aI159
aI90
aI376
aI345
aI500
aI156
aI436
aI128
aa(lp37
I263
aI316
aI273
aI238
aI120
aI299
aI371
aI273
aI551
aI299
aI370
aI16
aI404
aI9
aI159
aI248
aI365
aI83
aI465
aI342
aI159
aI16
aI329
aI174
aI118
aI103
aI258
aI128
aa(lp38
I162
aI96
aI97
aI339
aI159
aI531
aI532
aI319
aI159
aI136
aI310
aI223
aI396
aI128
aa(lp39
I263
aI17
aI513
aI34
aI533
aI101
aI518
aI53
aI77
aI128
aa(lp40
I410
aI216
aI300
aI5
aI368
aI159
aI372
aI396
aI393
aI164
aI310
aI128
aa(lp41
I382
aI309
aI162
aI96
aI97
aI16
aI542
aI110
aI329
aI174
aI11
aI345
aI123
aI510
aI342
aI417
aI506
aI77
aI81
aI457
aI339
aI159
aI28
aI532
aI319
aI159
aI47
aI533
aI131
aI494
aI280
aI246
aI460
aI128
aa(lp42
I498
aI533
aI330
aI380
aI58
aI247
aI548
aI159
aI230
aI259
aI406
aI76
aI83
aI494
aI222
aI509
aI371
aI364
aI117
aI446
aI383
aI440
aI159
aI89
aI418
aI78
aI83
aI402
aI533
aI442
aI317
aI438
aI128
aa(lp43
I483
aI249
aI172
aI159
aI320
aI2
aI144
aI372
aI15
aI128
aa(lp44
I190
aI93
aI533
aI356
aI487
aI173
aI371
aI190
aI209
aI356
aI193
aI128
aa(lp45
I279
aI253
aI154
aI159
aI164
aI56
aI83
aI299
aI533
aI546
aI128
aa(lp46
I190
aI196
aI29
aI173
aI533
aI494
aI159
aI410
aI546
aI541
aI311
aI128
aa(lp47
I113
aI217
aI236
aI338
aI111
aI236
aI85
aI159
aI546
aI430
aI252
aI217
aI236
aI128
aa(lp48
I410
aI253
aI202
aI159
aI407
aI202
aI46
aI459
aI128
aa(lp49
I253
aI518
aI183
aI438
aI494
aI128
aa(lp50
I488
aI503
aI224
aI320
aI362
aI450
aI149
aI159
aI411
aI76
aI83
aI536
aI344
aI277
aI406
aI405
aI83
aI62
aI344
aI159
aI360
aI265
aI532
aI98
aI307
aI25
aI128
aa(lp51
I263
aI316
aI298
aI472
aI299
aI159
aI248
aI298
aI249
aI438
aI159
aI190
aI221
aI125
aI173
aI159
aI171
aI255
aI151
aI159
aI145
aI298
aI288
aI232
aI189
aI179
aI63
aI128
aa(lp52
I190
aI334
aI159
aI328
aI159
aI552
aI104
aI83
aI122
aI193
aI338
aI361
aI159
aI171
aI14
aI312
aI533
aI191
aI546
aI128
aa(lp53
I190
aI160
aI27
aI77
aI128
aa(lp54
I496
aI533
aI170
aI238
aI251
aI153
aI453
aI241
aI233
aI474
aI153
aI159
aI324
aI270
aI45
aI51
aI24
aI533
aI49
aI56
aI463
aI82
aI31
aI128
aa(lp55
I239
aI12
aI216
aI229
aI384
aI229
aI159
aI229
aI289
aI229
aI403
aI128
aa(lp56
I18
aI64
aI494
aI38
aI142
aI128
aa(lp57
I484
aI377
aI39
aI356
aI83
aI543
aI409
aI159
aI410
aI190
aI479
aI212
aI91
aI494
aI128
aa(lp58
I382
aI309
aI162
aI96
aI97
aI379
aI16
aI542
aI110
aI329
aI174
aI11
aI345
aI123
aI510
aI342
aI417
aI506
aI77
aI81
aI457
aI68
aI159
aI294
aI263
aI190
aI479
aI106
aI3
aI533
aI212
aI91
aI494
aI128
aa(lp59
I162
aI96
aI97
aI339
aI159
aI145
aI52
aI533
aI273
aI122
aI446
aI115
aI128
aa(lp60
I382
aI309
aI162
aI96
aI97
aI379
aI16
aI542
aI110
aI329
aI174
aI11
aI345
aI123
aI510
aI342
aI417
aI506
aI77
aI81
aI457
aI127
aI159
aI482
aI83
aI506
aI77
aI294
aI263
aI114
aI546
aI52
aI533
aI273
aI122
aI159
aa(lp61
I162
aI96
aI97
aI339
aI159
aI531
aI532
aI319
aI159
aI160
aI503
aI149
aI256
aI277
aI128
aa(lp62
I273
aI503
aI224
aI320
aI287
aI149
aI411
aI295
aI344
aI277
aI406
aI478
aI344
aI159
aI360
aI265
aI532
aI98
aI307
aI373
aI128
aa(lp63
I277
aI456
aI149
aI159
aI272
aI122
aI77
aI83
aI385
aI328
aI475
aI385
aI128
aa(lp64
I190
aI195
aI415
aI494
aI533
aI160
aI195
aI106
aI64
aI494
aI128
aa(lp65
I190
aI420
aI273
aI32
aI523
aI244
aI83
aI30
aI533
aI234
aI159
aI243
aI456
aI501
aI92
aI462
aI426
aI83
aI524
aI476
aI128
aa(lp66
I525
aI59
aI159
aI71
aI368
aI184
aI216
aI159
aI547
aI431
aI4
aI538
aI190
aI128
aa(lp67
I90
aI198
aI88
aI375
aI494
aI159
aI84
aI494
aI352
aI533
aI208
aI33
aI128
aa(lp68
I190
aI358
aI167
aI83
aI494
aI533
aI73
aI128
aa(lp69
I529
aI20
aI317
aI293
aI190
aI128
aa(lp70
I316
aI317
aI472
aI299
aI159
aI113
aI317
aI183
aI159
aI400
aI253
aI378
aI317
aI128
aa(lp71
I263
aI190
aI196
aI29
aI494
aI533
aI465
aI172
aI494
aI371
aI274
aI182
aI72
aI159
aI534
aI173
aI533
aI8
aI477
aI128
aa(lp72
I190
aI298
aI465
aI31
aI494
aI128
aa(lp73
I488
aI503
aI320
aI323
aI240
aI144
aI411
aI401
aI548
aI277
aI406
aI499
aI155
aI548
aI159
aI273
aI503
aI320
aI437
aI144
aI411
aI181
aI548
aI277
aI406
aI428
aI548
aI128
aa(lp74
I248
aI273
aI138
aI317
aI412
aI504
aI340
aI83
aI73
aI472
aI128
aa(lp75
I322
aI116
aI122
aI395
aI128
aa(lp76
I162
aI96
aI97
aI339
aI159
aI294
aI546
aI479
aI106
aI64
aI159
aI494
aI479
aI64
aI91
aI128
aa(lp77
I61
aI243
aI217
aI537
aI128
aa(lp78
I145
aI546
aI238
aI290
aI238
aI251
aI317
aI159
aI396
aI317
aI33
aI128
aa(lp79
I221
aI125
aI173
aI538
aI190
aI128
aa(lp80
I80
aI335
aI432
aI456
aI336
aI83
aI238
aI120
aI365
aI351
aI128
aa(lp81
I145
aI489
aI74
aI128
aa(lp82
I391
aI159
aI449
aI159
aI148
aI105
aI495
aI447
aI538
aI354
aI159
aI163
aI159
aI60
aI357
aI26
aI12
aI150
aI503
aI224
aI128
aa(lp83
I47
aI347
aI293
aI190
aI159
aI47
aI298
aI177
aI140
aI22
aI246
aI546
aI128
aa(lp84
I57
aI420
aI192
aI231
aI83
aI100
aI128
aa(lp85
I80
aI17
aI130
aI220
aI10
aI533
aI535
aI225
aI539
aI304
aI83
aI386
aI337
aI77
aI128
aa(lp86
I182
aI262
aI159
aI146
aI159
aI466
aI105
aI264
aI546
aI83
aI27
aI533
aI115
aI159
aI515
aI204
aI546
aI533
aI458
aI161
aI128
aa(lp87
I538
aI316
aI516
aI333
aI472
aI299
aI159
aI274
aI173
aI456
aI188
aI128
aa(lp88
I297
aI429
aI177
aI520
aI145
aI115
aI533
aI491
aI159
aI297
aI412
aI540
aI497
aI340
aI83
aI23
aI533
aI104
aI546
aI285
aI311
aI159
aI297
aI226
aI254
aI533
aI346
aI250
aI104
aI145
aI546
aI128
aa(lp89
I382
aI309
aI162
aI96
aI97
aI379
aI16
aI542
aI110
aI329
aI174
aI11
aI345
aI123
aI510
aI342
aI339
aI159
aI80
aI473
aI313
aI325
aI174
aI176
aI533
aI362
aI256
aI546
aI176
aI128
aa(lp90
I434
aI473
aI229
aI518
aI213
aI421
aI314
aI546
aI41
aI229
aI533
aI229
aI518
aI480
aI465
aI314
aI546
aI41
aI229
aI159
aI408
aI88
aI298
aI70
aI128
aa(lp91
I515
aI237
aI517
aI83
aI40
aI177
aI308
aI159
aI468
aI205
aI232
aI552
aI104
aI244
aI128
aa(lp92
I182
aI95
aI201
aI77
aI128
aa(lp93
I274
aI173
aI159
aI65
aI201
aI533
aI194
aI514
aI238
aI286
aI111
aI540
aI128
aa(lp94
I162
aI96
aI97
aI339
aI159
aI467
aI276
aI159
aI451
aI343
aI530
aI159
aI79
aI530
aI533
aI528
aI16
aI243
aI518
aI168
aI159
aI302
aI159
aI297
aI122
aI494
aI533
aI147
aI296
aI328
aI159
aI257
aI22
aI88
aI180
aI128
aa(lp95
I274
aI190
aI465
aI314
aI159
aI213
aI421
aI314
aI159
aI322
aI298
aI183
aI186
aI533
aI124
aI128
aa(lp96
I263
aI17
aI332
aI338
aI41
aI121
aI77
aI159
aI537
aI422
aI121
aI310
aI128
aa(lp97
I47
aI227
aI77
aI372
aI419
aI128
aa(lp98
I452
aI16
aI261
aI281
aI533
aI441
aI298
aI546
aI481
aI199
aI50
aI421
aI533
aI267
aI345
aI500
aI158
aI221
aI125
aI128
aa(lp99
I162
aI96
aI97
aI339
aI159
aI211
aI413
aI175
aI459
aI44
aI83
aI137
aI159
aI145
aI311
aI446
aI115
aI371
aI279
aI546
aI420
aI122
aI307
aI140
aI88
aI46
aI439
aI83
aI109
aI421
aI311
aI128
aa(lp100
I301
aI331
aI268
aI388
aI134
aI162
aI96
aI97
aI68
aI159
aI80
aI473
aI313
aI325
aI174
aI176
aI533
aI362
aI256
aI546
aI176
aI220
aI448
aI379
aI414
aa(lp101
I444
aI282
aI472
aI299
aI372
aI316
aI128
aa.