(lp1
(lp2
I73
aI604
aI619
aI477
aI120
aI422
aI623
aa(lp3
I488
aI520
aI49
aI551
aI170
aI180
aI373
aI381
aI520
aI124
aI314
aI215
aI157
aI662
aI533
aI112
aI562
aI657
aI303
aI381
aI393
aI434
aI520
aI15
aI303
aI486
aI314
aI311
aI533
aI450
aI112
aI350
aI338
aI577
aI439
aI671
aI604
aI520
aI3
aI291
aI488
aI119
aI180
aI303
aI520
aI130
aI532
aI18
aI114
aI671
aI488
aI699
aI623
aa(lp4
I340
aI482
aI662
aI637
aI382
aI623
aa(lp5
I488
aI39
aI551
aI170
aI180
aI294
aI234
aI644
aI303
aI326
aI390
aI685
aI303
aI354
aI674
aI685
aI595
aI623
aa(lp6
I93
aI314
aI586
aI196
aI167
aI178
aI623
aa(lp7
I74
aI304
aI10
aI259
aI488
aI567
aI683
aI219
aI75
aI636
aI307
aI127
aI180
aI546
aI677
aa(lp8
I427
aI18
aI520
aI368
aI180
aI520
aI680
aI604
aI282
aI303
aI690
aI87
aI295
aI653
aI488
aI520
aI297
aI551
aI170
aI623
aa(lp9
I520
aI7
aI337
aI70
aI680
aI604
aI282
aI432
aI206
aI650
aI97
aI186
aI509
aI488
aI119
aI18
aI313
aI509
aI488
aI699
aI180
aI658
aI505
aI426
aI224
aI604
aI606
aI671
aI488
aI545
aI407
aI623
aa(lp10
I520
aI7
aI337
aI371
aI680
aI604
aI690
aI265
aI547
aI97
aI290
aI509
aI18
aI174
aI509
aI180
aI650
aI598
aI658
aI426
aI505
aI604
aI574
aI671
aI488
aI545
aI407
aI623
aa(lp11
I520
aI79
aI604
aI515
aI534
aI604
aI282
aI303
aI690
aI87
aI532
aI97
aI667
aI272
aI509
aI18
aI445
aI272
aI509
aI623
aa(lp12
I520
aI256
aI604
aI690
aI681
aI185
aI97
aI222
aI234
aI18
aI289
aI234
aI623
aa(lp13
I488
aI39
aI551
aI170
aI180
aI520
aI144
aI295
aI312
aI261
aI303
aI463
aI448
aI500
aI632
aI180
aI84
aI488
aI105
aI230
aI244
aI577
aI520
aI567
aI180
aI520
aI368
aI46
aI623
aa(lp14
I369
aI39
aI551
aI170
aI180
aI520
aI35
aI604
aI99
aI532
aI510
aI623
aa(lp15
I520
aI7
aI337
aI219
aI149
aI604
aI282
aI432
aI547
aI97
aI298
aI623
aI359
aI210
aI571
aI18
aI372
aI179
aI210
aI571
aI180
aI303
aI284
aI577
aI690
aI432
aI180
aI97
aI205
aI210
aI571
aI18
aI197
aI210
aI571
aI623
aa(lp16
I154
aI132
aI94
aI659
aI12
aI518
aI180
aI34
aI54
aI303
aI452
aI430
aI105
aI379
aI180
aI303
aI658
aI65
aI256
aI604
aI458
aI385
aI128
aI303
aI62
aI623
aa(lp17
I520
aI256
aI604
aI66
aI5
aI303
aI520
aI7
aI337
aI165
aI624
aI308
aI491
aI623
aa(lp18
I659
aI28
aI604
aI333
aI241
aI32
aI18
aI419
aI180
aI567
aI683
aI226
aI541
aI418
aI18
aI159
aI498
aI35
aI643
aI520
aI505
aI456
aI209
aI589
aI110
aI170
aI488
aI699
aI180
aI309
aI18
aI284
aI604
aI159
aI638
aI314
aI35
aI167
aI424
aI180
aI520
aI368
aI46
aI623
aa(lp19
I74
aI88
aI63
aI412
aI488
aI386
aI301
aI180
aI100
aI693
aI636
aI307
aI127
aI180
aI546
aI677
aa(lp20
I386
aI301
aI303
aI100
aI693
aI308
aI646
aI63
aI412
aI168
aI520
aI297
aI551
aI170
aI180
aI395
aI307
aI647
aI263
aI37
aI488
aI362
aI368
aI600
aI520
aI123
aI604
aI520
aI548
aI575
aI661
aI520
aI409
aI604
aI520
aI251
aI348
aI604
aI520
aI670
aI386
aI567
aI683
aI684
aI623
aa(lp21
I652
aI600
aI520
aI86
aI126
aI577
aI520
aI63
aI67
aI180
aI520
aI567
aI683
aI100
aI541
aI52
aI520
aI451
aI604
aI656
aI487
aI172
aI122
aI303
aI489
aI623
aa(lp22
I520
aI478
aI180
aI19
aI303
aI557
aI604
aI520
aI95
aI318
aI308
aI450
aI603
aI635
aI180
aI248
aI18
aI159
aI27
aI488
aI520
aI424
aI683
aI86
aI204
aI303
aI520
aI100
aI683
aI594
aI324
aI160
aI180
aI46
aI520
aI368
aI623
aa(lp23
I520
aI511
aI604
aI220
aI520
aI95
aI318
aI598
aI195
aI159
aI234
aI98
aI637
aI285
aI600
aI59
aI623
aa(lp24
I686
aI303
aI449
aI123
aI488
aI520
aI100
aI637
aI603
aI218
aI134
aI623
aa(lp25
I31
aI488
aI520
aI100
aI683
aI611
aI627
aI273
aI32
aI18
aI464
aI623
aa(lp26
I520
aI100
aI683
aI35
aI604
aI19
aI488
aI398
aI637
aI422
aI211
aI623
aa(lp27
I520
aI3
aI567
aI683
aI356
aI100
aI180
aI520
aI3
aI567
aI683
aI95
aI416
aI180
aI520
aI100
aI135
aI303
aI520
aI567
aI683
aI143
aI308
aI646
aI78
aI9
aI18
aI378
aI520
aI23
aI303
aI563
aI604
aI520
aI424
aI180
aI68
aI176
aI570
aI499
aI303
aI302
aI26
aI303
aI517
aI488
aI520
aI462
aI604
aI162
aI625
aI613
aI30
aI623
aa(lp28
I520
aI368
aI46
aI105
aI688
aI223
aI612
aI308
aI556
aI601
aI63
aI199
aI488
aI301
aI314
aI214
aI122
aI180
aI489
aI303
aI605
aI623
aa(lp29
I286
aI403
aI541
aI450
aI646
aI488
aI386
aI301
aI682
aI623
aa(lp30
I612
aI308
aI450
aI688
aI18
aI225
aI25
aI577
aI666
aI627
aI402
aI520
aI100
aI600
aI520
aI257
aI504
aI303
aI520
aI548
aI303
aI567
aI600
aI520
aI676
aI180
aI303
aI121
aI541
aI51
aI382
aI276
aI279
aI623
aa(lp31
I74
aI355
aI572
aI520
aI499
aI604
aI2
aI158
aI604
aI662
aI661
aI2
aI507
aI303
aI419
aI520
aI264
aI604
aI662
aI64
aa(lp32
I560
aI18
aI419
aI520
aI702
aI273
aI577
aI690
aI157
aI662
aI488
aI280
aI520
aI92
aI691
aI322
aI520
aI351
aI539
aI64
aa(lp33
I560
aI212
aI159
aI189
aI413
aI488
aI302
aI508
aI597
aI303
aI203
aI159
aI386
aI521
aI273
aI623
aa(lp34
I405
aI355
aI111
aI303
aI137
aI105
aI567
aI643
aI660
aI488
aI2
aI376
aI180
aI331
aI567
aI604
aI159
aI133
aI323
aI303
aI643
aI660
aI145
aI269
aI488
aI74
aI623
aI267
aa(lp35
I247
aI650
aI189
aI123
aI643
aI639
aI18
aI291
aI303
aI90
aI40
aI303
aI164
aI159
aI632
aI193
aI50
aI64
aa(lp36
I419
aI216
aI40
aI577
aI282
aI303
aI690
aI499
aI64
aa(lp37
I134
aI420
aI180
aI473
aI438
aI303
aI208
aI600
aI162
aI24
aI623
aI267
aa(lp38
I74
aI355
aI278
aI47
aI641
aI303
aI91
aI129
aI619
aI477
aI120
aI488
aI415
aI373
aI303
aI568
aI300
aI376
aI604
aI122
aI303
aI489
aI64
aa(lp39
I306
aI520
aI406
aI577
aI122
aI303
aI489
aI64
aa(lp40
I560
aI18
aI523
aI520
aI495
aI604
aI122
aI303
aI489
aI25
aI180
aI419
aI276
aI268
aI273
aI180
aI306
aI520
aI73
aI604
aI619
aI477
aI120
aI180
aI249
aI520
aI229
aI604
aI358
aI180
aI303
aI249
aI159
aI695
aI246
aI97
aI223
aI231
aI18
aI115
aI332
aI623
aa(lp41
I74
aI355
aI51
aI492
aI550
aI329
aI180
aI154
aI659
aI501
aI303
aI383
aI180
aI700
aI493
aI180
aI444
aI180
aI349
aI180
aI664
aI303
aI365
aI180
aI303
aI346
aI218
aI159
aI38
aI256
aI604
aI264
aI564
aI64
aa(lp42
I464
aI200
aI397
aI488
aI520
aI550
aI455
aI303
aI389
aI492
aI550
aI329
aI303
aI550
aI177
aI64
aa(lp43
I419
aI520
aI73
aI604
aI520
aI424
aI683
aI550
aI41
aI303
aI550
aI634
aI303
aI224
aI176
aI550
aI367
aI643
aI676
aI375
aI623
aa(lp44
I3
aI307
aI647
aI263
aI541
aI655
aI577
aI33
aI69
aI635
aI520
aI347
aI604
aI520
aI254
aI692
aI303
aI520
aI499
aI604
aI520
aI288
aI425
aI623
aa(lp45
I520
aI307
aI646
aI121
aI104
aI524
aI71
aI520
aI368
aI600
aI520
aI123
aI604
aI520
aI548
aI661
aI520
aI409
aI604
aI520
aI251
aI348
aI604
aI520
aI670
aI386
aI567
aI683
aI684
aI37
aI623
aa(lp46
I520
aI548
aI355
aI258
aI8
aI2
aI475
aI303
aI325
aI151
aI18
aI364
aI520
aI552
aI600
aI334
aI64
aa(lp47
I303
aI420
aI334
aI221
aI281
aI182
aI598
aI319
aI520
aI397
aI604
aI520
aI431
aI303
aI665
aI654
aI273
aI180
aI520
aI368
aI46
aI623
aa(lp48
I3
aI307
aI647
aI263
aI541
aI655
aI577
aI21
aI2
aI314
aI43
aI499
aI604
aI217
aI303
aI520
aI690
aI144
aI37
aI180
aI524
aI645
aI575
aI520
aI368
aI600
aI520
aI123
aI604
aI520
aI548
aI661
aI520
aI409
aI604
aI520
aI251
aI348
aI604
aI520
aI670
aI386
aI567
aI683
aI684
aI623
aa(lp49
I267
aI405
aI355
aI560
aI18
aI544
aI468
aI217
aI303
aI520
aI690
aI144
aI303
aI65
aI334
aI221
aI680
aI659
aI520
aI271
aI275
aI604
aI216
aI570
aI123
aI623
aa(lp50
I74
aI355
aI572
aI200
aI347
aI488
aI217
aI303
aI520
aI690
aI144
aI180
aI427
aI18
aI520
aI368
aI623
aa(lp51
I474
aI591
aI18
aI464
aI400
aI31
aI488
aI690
aI373
aI180
aI520
aI548
aI355
aI408
aI520
aI60
aI643
aI690
aI377
aI303
aI542
aI513
aI18
aI2
aI496
aI604
aI520
aI424
aI600
aI520
aI446
aI604
aI514
aI387
aI650
aI81
aI303
aI422
aI475
aI623
aa(lp52
I483
aI696
aI577
aI57
aI105
aI488
aI520
aI499
aI604
aI217
aI406
aI303
aI488
aI175
aI122
aI303
aI489
aI623
aa(lp53
I74
aI355
aI529
aI650
aI520
aI640
aI604
aI5
aI577
aI72
aI82
aI255
aI4
aI303
aI577
aI76
aI392
aI72
aI577
aI567
aI303
aI525
aI180
aI622
aI53
aI92
aI527
aI303
aI618
aI180
aI5
aI577
aI690
aI213
aI436
aI180
aI659
aI514
aI659
aI139
aI180
aI333
aI303
aI226
aI5
aI488
aI520
aI147
aI623
aa(lp54
I105
aI58
aI355
aI585
aI266
aI18
aI253
aI431
aI117
aI373
aI180
aI645
aI503
aI623
aa(lp55
I159
aI189
aI413
aI355
aI585
aI260
aI488
aI233
aI433
aI172
aI499
aI623
aa(lp56
I520
aI558
aI144
aI355
aI585
aI485
aI274
aI335
aI623
aa(lp57
I663
aI314
aI92
aI570
aI499
aI355
aI585
aI476
aI623
aa(lp58
I520
aI131
aI604
aI443
aI355
aI585
aI163
aI623
aa(lp59
I520
aI548
aI355
aI519
aI303
aI553
aI520
aI593
aI604
aI343
aI690
aI181
aI18
aI188
aI314
aI175
aI329
aI182
aI180
aI303
aI420
aI520
aI166
aI120
aI303
aI281
aI604
aI184
aI314
aI620
aI679
aI502
aI613
aI183
aI296
aI488
aI417
aI180
aI520
aI368
aI46
aI623
aa(lp60
I647
aI696
aI577
aI254
aI668
aI180
aI499
aI604
aI447
aI74
aI127
aI180
aI546
aI677
aa(lp61
I74
aI355
aI529
aI650
aI520
aI347
aI604
aI520
aI254
aI692
aI427
aI18
aI520
aI310
aI577
aI159
aI63
aI404
aI18
aI36
aI180
aI520
aI368
aI46
aI180
aI530
aI283
aI612
aI355
aI585
aI646
aI18
aI492
aI133
aI303
aI63
aI314
aI339
aI177
aI284
aI125
aI610
aI370
aI216
aI570
aI651
aI623
aa(lp62
I267
aI405
aI355
aI207
aI642
aI483
aI675
aI303
aI96
aI483
aI18
aI566
aI36
aI623
aa(lp63
I405
aI355
aI494
aI107
aI96
aI604
aI555
aI228
aI641
aI18
aI628
aI336
aI177
aI303
aI394
aI216
aI531
aI596
aI605
aI623
aa(lp64
I405
aI355
aI361
aI159
aI189
aI413
aI488
aI40
aI303
aI245
aI520
aI499
aI604
aI216
aI292
aI180
aI270
aI303
aI693
aI516
aI177
aI18
aI44
aI252
aI592
aI303
aI421
aI569
aI623
aa(lp65
I405
aI355
aI582
aI658
aI56
aI573
aI576
aI604
aI216
aI453
aI396
aI284
aI541
aI562
aI48
aI623
aa(lp66
I405
aI355
aI697
aI492
aI457
aI328
aI303
aI198
aI623
aa(lp67
I405
aI355
aI490
aI78
aI410
aI18
aI520
aI499
aI604
aI437
aI82
aI352
aI328
aI180
aI267
aI520
aI368
aI46
aI623
aa(lp68
I267
aI405
aI355
aI29
aI600
aI415
aI537
aI180
aI161
aI608
aI549
aI303
aI344
aI159
aI469
aI232
aI180
aI267
aI483
aI77
aI623
aa(lp69
I474
aI591
aI18
aI306
aI73
aI604
aI520
aI689
aI17
aI303
aI406
aI499
aI180
aI74
aI355
aI134
aI522
aI621
aI694
aI18
aI672
aI180
aI420
aI162
aI672
aI180
aI303
aI44
aI51
aI250
aI623
aa(lp70
I520
aI20
aI604
aI584
aI442
aI373
aI18
aI202
aI355
aI560
aI180
aI303
aI435
aI578
aI123
aI355
aI585
aI688
aI623
aa(lp71
I267
aI405
aI355
aI123
aI471
aI303
aI105
aI134
aI600
aI253
aI537
aI18
aI609
aI520
aI403
aI303
aI264
aI604
aI640
aI623
aa(lp72
I570
aI25
aI643
aI360
aI481
aI303
aI526
aI177
aI355
aI585
aI266
aI190
aI627
aI623
aa(lp73
I570
aI367
aI303
aI401
aI434
aI520
aI459
aI180
aI602
aI303
aI288
aI142
aI355
aI585
aI382
aI180
aI320
aI284
aI194
aI125
aI411
aI257
aI262
aI303
aI492
aI607
aI598
aI607
aI180
aI427
aI18
aI647
aI623
aa(lp74
I325
aI355
aI585
aI461
aI18
aI44
aI106
aI626
aI18
aI520
aI288
aI425
aI604
aI559
aI180
aI48
aI254
aI531
aI303
aI61
aI460
aI180
aI483
aI46
aI623
aa(lp75
I520
aI368
aI696
aI577
aI190
aI627
aI18
aI520
aI565
aI254
aI357
aI488
aI276
aI612
aI18
aI55
aI347
aI303
aI538
aI543
aI180
aI225
aI417
aI613
aI373
aI284
aI391
aI169
aI363
aI600
aI374
aI83
aI18
aI492
aI528
aI177
aI180
aI303
aI687
aI520
aI565
aI242
aI238
aI373
aI303
aI373
aI116
aI598
aI152
aI429
aI18
aI492
aI105
aI579
aI623
aa(lp76
I3
aI307
aI600
aI386
aI648
aI172
aI122
aI180
aI489
aI127
aI180
aI546
aI677
aa(lp77
I307
aI647
aI263
aI395
aI37
aI520
aI548
aI472
aI258
aI8
aI520
aI451
aI604
aI386
aI648
aI172
aI122
aI180
aI489
aI303
aI662
aI303
aI520
aI451
aI604
aI380
aI499
aI623
aa(lp78
I427
aI18
aI520
aI368
aI180
aI399
aI146
aI577
aI638
aI303
aI629
aI314
aI201
aI499
aI604
aI122
aI303
aI489
aI355
aI585
aI235
aI89
aI303
aI52
aI623
aa(lp79
I267
aI405
aI310
aI18
aI642
aI520
aI499
aI604
aI159
aI399
aI583
aI273
aI623
aa(lp80
I405
aI355
aI134
aI306
aI216
aI454
aI303
aI133
aI314
aI339
aI223
aI303
aI42
aI216
aI535
aI577
aI587
aI303
aI538
aI583
aI303
aI569
aI623
aa(lp81
I405
aI355
aI561
aI669
aI701
aI488
aI423
aI520
aI399
aI327
aI577
aI133
aI314
aI339
aI223
aI303
aI499
aI303
aI520
aI399
aI327
aI577
aI499
aI604
aI454
aI223
aI488
aI415
aI373
aI180
aI659
aI514
aI659
aI253
aI537
aI577
aI122
aI303
aI489
aI499
aI180
aI267
aI520
aI368
aI46
aI623
aa(lp82
I484
aI410
aI355
aI585
aI649
aI18
aI85
aI303
aI162
aI316
aI180
aI303
aI123
aI355
aI585
aI260
aI18
aI642
aI520
aI499
aI604
aI148
aI303
aI676
aI85
aI316
aI623
aa(lp83
I267
aI405
aI355
aI464
aI520
aI397
aI604
aI520
aI139
aI273
aI180
aI225
aI173
aI237
aI18
aI662
aI180
aI303
aI642
aI321
aI314
aI315
aI662
aI488
aI658
aI2
aI314
aI43
aI633
aI180
aI267
aI46
aI520
aI368
aI623
aa(lp84
I673
aI662
aI303
aI243
aI355
aI585
aI382
aI623
aa(lp85
I93
aI314
aI586
aI196
aI355
aI585
aI108
aI488
aI299
aI643
aI520
aI156
aI180
aI303
aI276
aI499
aI355
aI585
aI345
aI623
aa(lp86
I105
aI512
aI355
aI585
aI52
aI577
aI468
aI240
aI24
aI623
aa(lp87
I73
aI303
aI277
aI604
aI520
aI689
aI17
aI355
aI585
aI382
aI180
aI303
aI520
aI287
aI73
aI605
aI355
aI585
aI697
aI167
aI623
aa(lp88
I3
aI307
aI600
aI140
aI180
aI698
aI604
aI156
aI180
aI550
aI155
aI127
aI180
aI546
aI677
aa(lp89
I307
aI647
aI263
aI180
aI488
aI362
aI548
aI123
aI368
aI18
aI520
aI251
aI348
aI604
aI520
aI293
aI22
aI150
aI37
aI180
aI655
aI577
aI656
aI520
aI693
aI604
aI470
aI140
aI180
aI520
aI578
aI273
aI303
aI45
aI580
aI623
aa(lp90
I74
aI355
aI492
aI470
aI140
aI303
aI317
aI159
aI470
aI449
aI580
aI623
aa(lp91
I449
aI588
aI303
aI140
aI661
aI520
aI360
aI35
aI488
aI282
aI303
aI690
aI373
aI355
aI585
aI382
aI180
aI427
aI18
aI520
aI368
aI623
aa(lp92
I74
aI355
aI536
aI698
aI604
aI156
aI643
aI698
aI598
aI704
aI488
aI506
aI520
aI424
aI180
aI419
aI520
aI470
aI578
aI273
aI303
aI520
aI542
aI342
aI303
aI109
aI180
aI599
aI520
aI35
aI604
aI156
aI305
aI598
aI542
aI691
aI303
aI136
aI159
aI156
aI82
aI467
aI113
aI441
aI520
aI424
aI623
aa(lp93
I267
aI138
aI631
aI520
aI479
aI604
aI555
aI388
aI180
aI405
aI355
aI6
aI216
aI612
aI18
aI317
aI650
aI159
aI470
aI45
aI580
aI623
aa(lp94
I405
aI355
aI540
aI239
aI520
aI20
aI577
aI153
aI615
aI330
aI617
aI192
aI303
aI103
aI303
aI642
aI159
aI386
aI466
aI623
aa(lp95
I267
aI405
aI355
aI191
aI587
aI353
aI180
aI324
aI440
aI180
aI303
aI642
aI159
aI616
aI303
aI80
aI678
aI623
aa(lp96
I405
aI355
aI341
aI630
aI428
aI11
aI303
aI101
aI384
aI623
aa(lp97
I499
aI303
aI702
aI604
aI227
aI141
aI355
aI585
aI382
aI180
aI267
aI483
aI46
aI623
aa(lp98
I74
aI355
aI389
aI642
aI520
aI397
aI303
aI499
aI604
aI226
aI303
aI102
aI329
aI623
aa(lp99
I590
aI236
aI577
aI520
aI465
aI66
aI355
aI585
aI697
aI476
aI180
aI303
aI520
aI35
aI604
aI526
aI102
aI614
aI56
aI51
aI623
aa(lp100
I74
aI355
aI258
aI361
aI159
aI189
aI413
aI488
aI366
aI577
aI520
aI703
aI480
aI497
aI488
aI127
aI303
aI520
aI187
aI554
aI581
aI488
aI14
aI623
aa(lp101
I267
aI405
aI118
aI414
aI669
aI13
aI488
aI16
aI85
aI171
aI623
aa.